target datalayout = "e-m:e-p270:32:32-p271:32:32-p272:64:64-i64:64-i128:128-f80:128-n8:16:32:64-S128"
target triple = "x86_64-pc-linux-gnu"

; Function Attrs: inlinehint mustprogress nounwind uwtable
define linkonce_odr hidden noundef zeroext i1 @_ZN10ODDLParser9isNewLineIcEEbT_(i8 noundef signext %0) #12 comdat {
  %2 = alloca i8, align 1
  store i8 %0, ptr %2, align 1
  %3 = load i8, ptr %2, align 1
  %4 = sext i8 %3 to i32
  %5 = icmp eq i32 10, %4
  br i1 %5, label %10, label %6

6:                                                ; preds = %1
  %7 = load i8, ptr %2, align 1
  %8 = sext i8 %7 to i32
  %9 = icmp eq i32 13, %8
  br label %10

10:                                               ; preds = %6, %1
  %11 = phi i1 [ true, %1 ], [ %9, %6 ]
  ret i1 %11
}

; Function Attrs: inlinehint mustprogress nounwind uwtable
define linkonce_odr hidden noundef zeroext i1 @_ZN10ODDLParser7isSpaceIcEEbT_(i8 noundef signext %0) #12 comdat {
  %2 = alloca i8, align 1
  store i8 %0, ptr %2, align 1
  %3 = load i8, ptr %2, align 1
  %4 = sext i8 %3 to i32
  %5 = icmp eq i32 32, %4
  br i1 %5, label %10, label %6

6:                                                ; preds = %1
  %7 = load i8, ptr %2, align 1
  %8 = sext i8 %7 to i32
  %9 = icmp eq i32 9, %8
  br label %10

10:                                               ; preds = %6, %1
  %11 = phi i1 [ true, %1 ], [ %9, %6 ]
  ret i1 %11
}

; Function Attrs: inlinehint mustprogress nounwind willreturn memory(read) uwtable
define available_externally i64 @atoll(ptr noundef nonnull %0) #15 {
  %2 = alloca ptr, align 8
  store ptr %0, ptr %2, align 8
  %3 = load ptr, ptr %2, align 8
  %4 = call i64 @strtoll(ptr noundef %3, ptr noundef null, i32 noundef 10) #3
  ret i64 %4
}

; Function Attrs: inlinehint mustprogress nounwind uwtable
define linkonce_odr hidden noundef zeroext i1 @_ZN10ODDLParser9isNumericIcEEbT_(i8 noundef signext %0) #12 comdat {
  %2 = alloca i1, align 1
  %3 = alloca i8, align 1
  %4 = alloca i64, align 8
  store i8 %0, ptr %3, align 1
  %5 = load i8, ptr %3, align 1
  %6 = sext i8 %5 to i64
  %7 = icmp uge i64 %6, 256
  br i1 %7, label %8, label %9

8:                                                ; preds = %1
  store i1 false, ptr %2, align 1
  br label %22

9:                                                ; preds = %1
  call void @llvm.lifetime.start.p0(i64 8, ptr %4) #3
  %10 = load i8, ptr %3, align 1
  %11 = sext i8 %10 to i64
  store i64 %11, ptr %4, align 8
  %12 = load i64, ptr %4, align 8
  %13 = icmp ult i64 %12, 256
  br i1 %13, label %14, label %20

14:                                               ; preds = %9
  %15 = load i64, ptr %4, align 8
  %16 = getelementptr inbounds nuw [256 x i8], ptr @_ZN10ODDLParserL14chartype_tableE, i64 0, i64 %15
  %17 = load i8, ptr %16, align 1
  %18 = zext i8 %17 to i32
  %19 = icmp eq i32 %18, 1
  br label %20

20:                                               ; preds = %14, %9
  %21 = phi i1 [ false, %9 ], [ %19, %14 ]
  store i1 %21, ptr %2, align 1
  call void @llvm.lifetime.end.p0(i64 8, ptr %4) #3
  br label %22

22:                                               ; preds = %20, %8
  %23 = load i1, ptr %2, align 1
  ret i1 %23
}

; Function Attrs: inlinehint mustprogress uwtable
define linkonce_odr hidden noundef zeroext i1 @_ZN10ODDLParser11isSeparatorIcEEbT_(i8 noundef signext %0) #10 comdat {
  %2 = alloca i1, align 1
  %3 = alloca i8, align 1
  store i8 %0, ptr %3, align 1
  %4 = load i8, ptr %3, align 1
  %5 = call noundef zeroext i1 @_ZN10ODDLParser7isSpaceIcEEbT_(i8 noundef signext %4)
  br i1 %5, label %30, label %6

6:                                                ; preds = %1
  %7 = load i8, ptr %3, align 1
  %8 = sext i8 %7 to i32
  %9 = icmp eq i32 44, %8
  br i1 %9, label %30, label %10

10:                                               ; preds = %6
  %11 = load i8, ptr %3, align 1
  %12 = sext i8 %11 to i32
  %13 = icmp eq i32 123, %12
  br i1 %13, label %30, label %14

14:                                               ; preds = %10
  %15 = load i8, ptr %3, align 1
  %16 = sext i8 %15 to i32
  %17 = icmp eq i32 125, %16
  br i1 %17, label %30, label %18

18:                                               ; preds = %14
  %19 = load i8, ptr %3, align 1
  %20 = sext i8 %19 to i32
  %21 = icmp eq i32 91, %20
  br i1 %21, label %30, label %22

22:                                               ; preds = %18
  %23 = load i8, ptr %3, align 1
  %24 = sext i8 %23 to i32
  %25 = icmp eq i32 40, %24
  br i1 %25, label %30, label %26

26:                                               ; preds = %22
  %27 = load i8, ptr %3, align 1
  %28 = sext i8 %27 to i32
  %29 = icmp eq i32 41, %28
  br i1 %29, label %30, label %31

30:                                               ; preds = %26, %22, %18, %14, %10, %6, %1
  store i1 true, ptr %2, align 1
  br label %32

31:                                               ; preds = %26
  store i1 false, ptr %2, align 1
  br label %32

32:                                               ; preds = %31, %30
  %33 = load i1, ptr %2, align 1
  ret i1 %33
}

; Function Attrs: inlinehint mustprogress uwtable
define linkonce_odr hidden noundef ptr @_ZN10ODDLParser16lookForNextTokenIcEEPT_S2_S2_(ptr noundef %0, ptr noundef %1) #10 comdat {
  %3 = alloca ptr, align 8
  %4 = alloca ptr, align 8
  store ptr %0, ptr %3, align 8
  store ptr %1, ptr %4, align 8
  br label %5

5:                                                ; preds = %26, %2
  %6 = load ptr, ptr %3, align 8
  %7 = load ptr, ptr %4, align 8
  %8 = icmp ne ptr %6, %7
  br i1 %8, label %9, label %24

9:                                                ; preds = %5
  %10 = load ptr, ptr %3, align 8
  %11 = load i8, ptr %10, align 1
  %12 = call noundef zeroext i1 @_ZN10ODDLParser7isSpaceIcEEbT_(i8 noundef signext %11)
  br i1 %12, label %22, label %13

13:                                               ; preds = %9
  %14 = load ptr, ptr %3, align 8
  %15 = load i8, ptr %14, align 1
  %16 = call noundef zeroext i1 @_ZN10ODDLParser9isNewLineIcEEbT_(i8 noundef signext %15)
  br i1 %16, label %22, label %17

17:                                               ; preds = %13
  %18 = load ptr, ptr %3, align 8
  %19 = load i8, ptr %18, align 1
  %20 = sext i8 %19 to i32
  %21 = icmp eq i32 44, %20
  br label %22

22:                                               ; preds = %17, %13, %9
  %23 = phi i1 [ true, %13 ], [ true, %9 ], [ %21, %17 ]
  br label %24

24:                                               ; preds = %22, %5
  %25 = phi i1 [ false, %5 ], [ %23, %22 ]
  br i1 %25, label %26, label %29

26:                                               ; preds = %24
  %27 = load ptr, ptr %3, align 8
  %28 = getelementptr inbounds nuw i8, ptr %27, i32 1
  store ptr %28, ptr %3, align 8
  br label %5, !llvm.loop !13

29:                                               ; preds = %24
  %30 = load ptr, ptr %3, align 8
  ret ptr %30
}

; Function Attrs: mustprogress nounwind uwtable
define internal noundef zeroext i1 @_ZN10ODDLParserL21isUnsignedIntegerTypeENS_5Value9ValueTypeE(i32 noundef %0) #4 {
  %2 = alloca i1, align 1
  %3 = alloca i32, align 4
  store i32 %0, ptr %3, align 4
  %4 = load i32, ptr %3, align 4
  %5 = icmp ne i32 %4, 5
  br i1 %5, label %6, label %16

6:                                                ; preds = %1
  %7 = load i32, ptr %3, align 4
  %8 = icmp ne i32 %7, 6
  br i1 %8, label %9, label %16

9:                                                ; preds = %6
  %10 = load i32, ptr %3, align 4
  %11 = icmp ne i32 %10, 7
  br i1 %11, label %12, label %16

12:                                               ; preds = %9
  %13 = load i32, ptr %3, align 4
  %14 = icmp ne i32 %13, 8
  br i1 %14, label %15, label %16

15:                                               ; preds = %12
  store i1 false, ptr %2, align 1
  br label %17

16:                                               ; preds = %12, %9, %6, %1
  store i1 true, ptr %2, align 1
  br label %17

17:                                               ; preds = %16, %15
  %18 = load i1, ptr %2, align 1
  ret i1 %18
}

; Function Attrs: mustprogress nounwind uwtable
define internal noundef zeroext i1 @_ZN10ODDLParserL13isIntegerTypeENS_5Value9ValueTypeE(i32 noundef %0) #4 {
  %2 = alloca i1, align 1
  %3 = alloca i32, align 4
  store i32 %0, ptr %3, align 4
  %4 = load i32, ptr %3, align 4
  %5 = icmp ne i32 %4, 1
  br i1 %5, label %6, label %16

6:                                                ; preds = %1
  %7 = load i32, ptr %3, align 4
  %8 = icmp ne i32 %7, 2
  br i1 %8, label %9, label %16

9:                                                ; preds = %6
  %10 = load i32, ptr %3, align 4
  %11 = icmp ne i32 %10, 3
  br i1 %11, label %12, label %16

12:                                               ; preds = %9
  %13 = load i32, ptr %3, align 4
  %14 = icmp ne i32 %13, 4
  br i1 %14, label %15, label %16

15:                                               ; preds = %12
  store i1 false, ptr %2, align 1
  br label %17

16:                                               ; preds = %12, %9, %6, %1
  store i1 true, ptr %2, align 1
  br label %17

17:                                               ; preds = %16, %15
  %18 = load i1, ptr %2, align 1
  ret i1 %18
}

; Function Attrs: mustprogress uwtable
define hidden noundef ptr @_ZN10ODDLParser13OpenDDLParser19parseIntegerLiteralEPcS1_PPNS_5ValueENS2_9ValueTypeE(ptr noundef %0, ptr noundef %1, ptr noundef %2, i32 noundef %3) #6 align 2 {
  %5 = alloca ptr, align 8
  %6 = alloca ptr, align 8
  %7 = alloca ptr, align 8
  %8 = alloca ptr, align 8
  %9 = alloca i32, align 4
  %10 = alloca ptr, align 8
  %11 = alloca i64, align 8
  %12 = alloca i64, align 8
  store ptr %0, ptr %6, align 8
  store ptr %1, ptr %7, align 8
  store ptr %2, ptr %8, align 8
  store i32 %3, ptr %9, align 4
  %13 = load ptr, ptr %8, align 8
  store ptr null, ptr %13, align 8
  %14 = load ptr, ptr %6, align 8
  %15 = icmp eq ptr null, %14
  br i1 %15, label %20, label %16

16:                                               ; preds = %4
  %17 = load ptr, ptr %6, align 8
  %18 = load ptr, ptr %7, align 8
  %19 = icmp eq ptr %17, %18
  br i1 %19, label %20, label %22

20:                                               ; preds = %16, %4
  %21 = load ptr, ptr %6, align 8
  store ptr %21, ptr %5, align 8
  br label %103

22:                                               ; preds = %16
  %23 = load i32, ptr %9, align 4
  %24 = call noundef zeroext i1 @_ZN10ODDLParserL13isIntegerTypeENS_5Value9ValueTypeE(i32 noundef %23)
  br i1 %24, label %30, label %25

25:                                               ; preds = %22
  %26 = load i32, ptr %9, align 4
  %27 = call noundef zeroext i1 @_ZN10ODDLParserL21isUnsignedIntegerTypeENS_5Value9ValueTypeE(i32 noundef %26)
  br i1 %27, label %30, label %28

28:                                               ; preds = %25
  %29 = load ptr, ptr %6, align 8
  store ptr %29, ptr %5, align 8
  br label %103

30:                                               ; preds = %25, %22
  %31 = load ptr, ptr %6, align 8
  %32 = load ptr, ptr %7, align 8
  %33 = call noundef ptr @_ZN10ODDLParser16lookForNextTokenIcEEPT_S2_S2_(ptr noundef %31, ptr noundef %32)
  store ptr %33, ptr %6, align 8
  call void @llvm.lifetime.start.p0(i64 8, ptr %10) #3
  %34 = load ptr, ptr %6, align 8
  store ptr %34, ptr %10, align 8
  br label %35

35:                                               ; preds = %45, %30
  %36 = load ptr, ptr %6, align 8
  %37 = load i8, ptr %36, align 1
  %38 = call noundef zeroext i1 @_ZN10ODDLParser11isSeparatorIcEEbT_(i8 noundef signext %37)
  br i1 %38, label %43, label %39

39:                                               ; preds = %35
  %40 = load ptr, ptr %6, align 8
  %41 = load ptr, ptr %7, align 8
  %42 = icmp ne ptr %40, %41
  br label %43

43:                                               ; preds = %39, %35
  %44 = phi i1 [ false, %35 ], [ %42, %39 ]
  br i1 %44, label %45, label %48

45:                                               ; preds = %43
  %46 = load ptr, ptr %6, align 8
  %47 = getelementptr inbounds nuw i8, ptr %46, i32 1
  store ptr %47, ptr %6, align 8
  br label %35, !llvm.loop !21

48:                                               ; preds = %43
  %49 = load ptr, ptr %10, align 8
  %50 = load i8, ptr %49, align 1
  %51 = call noundef zeroext i1 @_ZN10ODDLParser9isNumericIcEEbT_(i8 noundef signext %50)
  br i1 %51, label %52, label %101

52:                                               ; preds = %48
  call void @llvm.lifetime.start.p0(i64 8, ptr %11) #3
  %53 = load ptr, ptr %10, align 8
  %54 = call i64 @atoll(ptr noundef %53) #23
  store i64 %54, ptr %11, align 8
  call void @llvm.lifetime.start.p0(i64 8, ptr %12) #3
  %55 = load ptr, ptr %10, align 8
  %56 = call i64 @strtoull(ptr noundef %55, ptr noundef null, i32 noundef 10) #3
  store i64 %56, ptr %12, align 8
  %57 = load i32, ptr %9, align 4
  %58 = call noundef ptr @_ZN10ODDLParser14ValueAllocator13allocPrimDataENS_5Value9ValueTypeEm(i32 noundef %57, i64 noundef 1)
  %59 = load ptr, ptr %8, align 8
  store ptr %58, ptr %59, align 8
  %60 = load i32, ptr %9, align 4
  switch i32 %60, label %99 [
    i32 1, label %61
    i32 2, label %66
    i32 3, label %71
    i32 4, label %76
    i32 5, label %80
    i32 6, label %85
    i32 7, label %90
    i32 8, label %95
  ]

61:                                               ; preds = %52
  %62 = load ptr, ptr %8, align 8
  %63 = load ptr, ptr %62, align 8
  %64 = load i64, ptr %11, align 8
  %65 = trunc i64 %64 to i8
  call void @_ZN10ODDLParser5Value7setInt8Ea(ptr noundef nonnull align 8 dereferenceable(32) %63, i8 noundef signext %65)
  br label %100

66:                                               ; preds = %52
  %67 = load ptr, ptr %8, align 8
  %68 = load ptr, ptr %67, align 8
  %69 = load i64, ptr %11, align 8
  %70 = trunc i64 %69 to i16
  call void @_ZN10ODDLParser5Value8setInt16Es(ptr noundef nonnull align 8 dereferenceable(32) %68, i16 noundef signext %70)
  br label %100

71:                                               ; preds = %52
  %72 = load ptr, ptr %8, align 8
  %73 = load ptr, ptr %72, align 8
  %74 = load i64, ptr %11, align 8
  %75 = trunc i64 %74 to i32
  call void @_ZN10ODDLParser5Value8setInt32Ei(ptr noundef nonnull align 8 dereferenceable(32) %73, i32 noundef %75)
  br label %100

76:                                               ; preds = %52
  %77 = load ptr, ptr %8, align 8
  %78 = load ptr, ptr %77, align 8
  %79 = load i64, ptr %11, align 8
  call void @_ZN10ODDLParser5Value8setInt64El(ptr noundef nonnull align 8 dereferenceable(32) %78, i64 noundef %79)
  br label %100

80:                                               ; preds = %52
  %81 = load ptr, ptr %8, align 8
  %82 = load ptr, ptr %81, align 8
  %83 = load i64, ptr %12, align 8
  %84 = trunc i64 %83 to i8
  call void @_ZN10ODDLParser5Value15setUnsignedInt8Eh(ptr noundef nonnull align 8 dereferenceable(32) %82, i8 noundef zeroext %84)
  br label %100

85:                                               ; preds = %52
  %86 = load ptr, ptr %8, align 8
  %87 = load ptr, ptr %86, align 8
  %88 = load i64, ptr %12, align 8
  %89 = trunc i64 %88 to i16
  call void @_ZN10ODDLParser5Value16setUnsignedInt16Et(ptr noundef nonnull align 8 dereferenceable(32) %87, i16 noundef zeroext %89)
  br label %100

90:                                               ; preds = %52
  %91 = load ptr, ptr %8, align 8
  %92 = load ptr, ptr %91, align 8
  %93 = load i64, ptr %12, align 8
  %94 = trunc i64 %93 to i32
  call void @_ZN10ODDLParser5Value16setUnsignedInt32Ej(ptr noundef nonnull align 8 dereferenceable(32) %92, i32 noundef %94)
  br label %100

95:                                               ; preds = %52
  %96 = load ptr, ptr %8, align 8
  %97 = load ptr, ptr %96, align 8
  %98 = load i64, ptr %12, align 8
  call void @_ZN10ODDLParser5Value16setUnsignedInt64Em(ptr noundef nonnull align 8 dereferenceable(32) %97, i64 noundef %98)
  br label %100

99:                                               ; preds = %52
  br label %100

100:                                              ; preds = %99, %95, %90, %85, %80, %76, %71, %66, %61
  call void @llvm.lifetime.end.p0(i64 8, ptr %12) #3
  call void @llvm.lifetime.end.p0(i64 8, ptr %11) #3
  br label %101

101:                                              ; preds = %100, %48
  %102 = load ptr, ptr %6, align 8
  store ptr %102, ptr %5, align 8
  call void @llvm.lifetime.end.p0(i64 8, ptr %10) #3
  br label %103

103:                                              ; preds = %101, %28, %20
  %104 = load ptr, ptr %5, align 8
  ret ptr %104
}