; Function Attrs: mustprogress uwtable
define hidden noundef ptr @_ZN10ODDLParser13OpenDDLParser19parseIntegerLiteralEPcS1_PPNS_5ValueENS2_9ValueTypeE(ptr noundef %0, ptr noundef %1, ptr noundef writeonly captures(none) initializes((0, 8)) %2, i32 noundef %3) local_unnamed_addr #6 align 2 {
  %5 = ptrtoint ptr %1 to i64
  store ptr null, ptr %2, align 8
  %6 = icmp ne ptr %0, null
  %7 = icmp ne ptr %0, %1
  %or.cond.not48 = and i1 %6, %7
  %.off = add i32 %3, -1
  %switch = icmp ult i32 %.off, 8
  %or.cond46 = and i1 %or.cond.not48, %switch
  br i1 %or.cond46, label %.lr.ph.preheader.i, label %_ZN10ODDLParser9isNumericIcEEbT_.exit.thread

.lr.ph.preheader.i:                               ; preds = %4
  %8 = ptrtoint ptr %0 to i64
  %9 = sub i64 %5, %8
  %scevgep.i = getelementptr i8, ptr %0, i64 %9
  br label %.lr.ph.i

.lr.ph.i:                                         ; preds = %.critedge2.i, %.lr.ph.preheader.i
  %.010.i = phi ptr [ %11, %.critedge2.i ], [ %0, %.lr.ph.preheader.i ]
  %10 = load i8, ptr %.010.i, align 1
  switch i8 %10, label %_ZN10ODDLParser16lookForNextTokenIcEEPT_S2_S2_.exit [
    i8 32, label %.critedge2.i
    i8 9, label %.critedge2.i
    i8 13, label %.critedge2.i
    i8 10, label %.critedge2.i
    i8 44, label %.critedge2.i
  ]

.critedge2.i:                                     ; preds = %.lr.ph.i, %.lr.ph.i, %.lr.ph.i, %.lr.ph.i, %.lr.ph.i
  %11 = getelementptr inbounds nuw i8, ptr %.010.i, i64 1
  %.not.i = icmp eq ptr %11, %1
  br i1 %.not.i, label %_ZN10ODDLParser16lookForNextTokenIcEEPT_S2_S2_.exit, label %.lr.ph.i, !llvm.loop !8

_ZN10ODDLParser16lookForNextTokenIcEEPT_S2_S2_.exit: ; preds = %.lr.ph.i, %.critedge2.i
  %.0.lcssa.i = phi ptr [ %.010.i, %.lr.ph.i ], [ %scevgep.i, %.critedge2.i ]
  %12 = icmp eq ptr %.0.lcssa.i, %1
  br i1 %12, label %switch.early.test._crit_edge, label %switch.early.test.preheader

switch.early.test.preheader:                      ; preds = %_ZN10ODDLParser16lookForNextTokenIcEEPT_S2_S2_.exit
  %.0.lcssa.i65 = ptrtoint ptr %.0.lcssa.i to i64
  %13 = sub i64 %5, %.0.lcssa.i65
  %scevgep = getelementptr i8, ptr %.0.lcssa.i, i64 %13
  br label %switch.early.test

switch.early.test:                                ; preds = %switch.early.test.preheader, %15
  %.03849 = phi ptr [ %16, %15 ], [ %.0.lcssa.i, %switch.early.test.preheader ]
  %14 = load i8, ptr %.03849, align 1
  switch i8 %14, label %15 [
    i8 125, label %switch.early.test._crit_edge
    i8 123, label %switch.early.test._crit_edge
    i8 91, label %switch.early.test._crit_edge
    i8 44, label %switch.early.test._crit_edge
    i8 41, label %switch.early.test._crit_edge
    i8 40, label %switch.early.test._crit_edge
    i8 32, label %switch.early.test._crit_edge
    i8 9, label %switch.early.test._crit_edge
  ]

15:                                               ; preds = %switch.early.test
  %16 = getelementptr inbounds nuw i8, ptr %.03849, i64 1
  %17 = icmp eq ptr %16, %1
  br i1 %17, label %switch.early.test._crit_edge, label %switch.early.test, !llvm.loop !34

switch.early.test._crit_edge:                     ; preds = %15, %switch.early.test, %switch.early.test, %switch.early.test, %switch.early.test, %switch.early.test, %switch.early.test, %switch.early.test, %switch.early.test, %_ZN10ODDLParser16lookForNextTokenIcEEPT_S2_S2_.exit
  %.038.lcssa = phi ptr [ %.0.lcssa.i, %_ZN10ODDLParser16lookForNextTokenIcEEPT_S2_S2_.exit ], [ %.03849, %switch.early.test ], [ %.03849, %switch.early.test ], [ %.03849, %switch.early.test ], [ %.03849, %switch.early.test ], [ %.03849, %switch.early.test ], [ %.03849, %switch.early.test ], [ %.03849, %switch.early.test ], [ %.03849, %switch.early.test ], [ %scevgep, %15 ]
  %18 = load i8, ptr %.0.lcssa.i, align 1
  %19 = icmp slt i8 %18, 0
  br i1 %19, label %_ZN10ODDLParser9isNumericIcEEbT_.exit.thread, label %_ZN10ODDLParser9isNumericIcEEbT_.exit

_ZN10ODDLParser9isNumericIcEEbT_.exit:            ; preds = %switch.early.test._crit_edge
  %20 = zext nneg i8 %18 to i64
  %21 = getelementptr inbounds nuw [256 x i8], ptr @_ZN10ODDLParserL14chartype_tableE, i64 0, i64 %20
  %22 = load i8, ptr %21, align 1
  %23 = icmp eq i8 %22, 1
  br i1 %23, label %24, label %_ZN10ODDLParser9isNumericIcEEbT_.exit.thread

24:                                               ; preds = %_ZN10ODDLParser9isNumericIcEEbT_.exit
  %25 = tail call i64 @strtoll(ptr noundef nonnull captures(none) %.0.lcssa.i, ptr noundef null, i32 noundef 10) #29
  %26 = tail call i64 @strtoull(ptr noundef nonnull captures(none) %.0.lcssa.i, ptr noundef null, i32 noundef 10) #29
  %27 = tail call noundef ptr @_ZN10ODDLParser14ValueAllocator13allocPrimDataENS_5Value9ValueTypeEm(i32 noundef %3, i64 noundef 1)
  store ptr %27, ptr %2, align 8
  switch i32 %3, label %_ZN10ODDLParser9isNumericIcEEbT_.exit.thread [
    i32 1, label %28
    i32 2, label %30
    i32 3, label %32
    i32 4, label %34
    i32 5, label %35
    i32 6, label %37
    i32 7, label %39
    i32 8, label %41
  ]

28:                                               ; preds = %24
  %29 = trunc i64 %25 to i8
  tail call void @_ZN10ODDLParser5Value7setInt8Ea(ptr noundef nonnull align 8 dereferenceable(32) %27, i8 noundef signext %29)
  br label %_ZN10ODDLParser9isNumericIcEEbT_.exit.thread

30:                                               ; preds = %24
  %31 = trunc i64 %25 to i16
  tail call void @_ZN10ODDLParser5Value8setInt16Es(ptr noundef nonnull align 8 dereferenceable(32) %27, i16 noundef signext %31)
  br label %_ZN10ODDLParser9isNumericIcEEbT_.exit.thread

32:                                               ; preds = %24
  %33 = trunc i64 %25 to i32
  tail call void @_ZN10ODDLParser5Value8setInt32Ei(ptr noundef nonnull align 8 dereferenceable(32) %27, i32 noundef %33)
  br label %_ZN10ODDLParser9isNumericIcEEbT_.exit.thread

34:                                               ; preds = %24
  tail call void @_ZN10ODDLParser5Value8setInt64El(ptr noundef nonnull align 8 dereferenceable(32) %27, i64 noundef %25)
  br label %_ZN10ODDLParser9isNumericIcEEbT_.exit.thread

35:                                               ; preds = %24
  %36 = trunc i64 %26 to i8
  tail call void @_ZN10ODDLParser5Value15setUnsignedInt8Eh(ptr noundef nonnull align 8 dereferenceable(32) %27, i8 noundef zeroext %36)
  br label %_ZN10ODDLParser9isNumericIcEEbT_.exit.thread

37:                                               ; preds = %24
  %38 = trunc i64 %26 to i16
  tail call void @_ZN10ODDLParser5Value16setUnsignedInt16Et(ptr noundef nonnull align 8 dereferenceable(32) %27, i16 noundef zeroext %38)
  br label %_ZN10ODDLParser9isNumericIcEEbT_.exit.thread

39:                                               ; preds = %24
  %40 = trunc i64 %26 to i32
  tail call void @_ZN10ODDLParser5Value16setUnsignedInt32Ej(ptr noundef nonnull align 8 dereferenceable(32) %27, i32 noundef %40)
  br label %_ZN10ODDLParser9isNumericIcEEbT_.exit.thread

41:                                               ; preds = %24
  tail call void @_ZN10ODDLParser5Value16setUnsignedInt64Em(ptr noundef nonnull align 8 dereferenceable(32) %27, i64 noundef %26)
  br label %_ZN10ODDLParser9isNumericIcEEbT_.exit.thread

_ZN10ODDLParser9isNumericIcEEbT_.exit.thread:     ; preds = %switch.early.test._crit_edge, %_ZN10ODDLParser9isNumericIcEEbT_.exit, %24, %41, %39, %37, %35, %34, %32, %30, %28, %4
  %.0 = phi ptr [ %0, %4 ], [ %.038.lcssa, %28 ], [ %.038.lcssa, %30 ], [ %.038.lcssa, %32 ], [ %.038.lcssa, %34 ], [ %.038.lcssa, %35 ], [ %.038.lcssa, %37 ], [ %.038.lcssa, %39 ], [ %.038.lcssa, %41 ], [ %.038.lcssa, %24 ], [ %.038.lcssa, %_ZN10ODDLParser9isNumericIcEEbT_.exit ], [ %.038.lcssa, %switch.early.test._crit_edge ]
  ret ptr %.0
}